; Function Attrs: mustprogress nounwind uwtable
define dso_local void @_ZN4llvm16MCObjectStreamer15emitCFISectionsEbb(ptr noundef nonnull align 8 dereferenceable(424) %0, i1 noundef zeroext %1, i1 noundef zeroext %2) unnamed_addr #0 align 2 {
  %4 = zext i1 %1 to i8
  %5 = zext i1 %2 to i8
  tail call void @_ZN4llvm10MCStreamer15emitCFISectionsEbb(ptr noundef nonnull align 8 dereferenceable(288) %0, i1 noundef zeroext %1, i1 noundef zeroext %2) #20
  %6 = getelementptr inbounds nuw i8, ptr %0, i64 296
  store i8 %4, ptr %6, align 8
  %7 = getelementptr inbounds nuw i8, ptr %0, i64 297
  store i8 %5, ptr %7, align 1
  ret void
}